; Function Attrs: mustprogress uwtable
define hidden void @_ZNK4cvc58internal6theory5arith2nl7NlModel18getSubstitutedFormENS0_12NodeTemplateILb0EEE(ptr dead_on_unwind noalias writable sret(%"class.cvc5::internal::NodeTemplate") align 8 %0, ptr noundef nonnull align 8 dereferenceable(369) %1, ptr noundef readonly captures(none) %2) local_unnamed_addr #3 align 2 personality ptr @__gxx_personality_v0 {
  %4 = alloca %"class.cvc5::internal::NodeTemplate.98", align 8
  %5 = alloca %"class.cvc5::internal::NodeTemplate", align 8
  %6 = alloca %"class.cvc5::internal::NodeTemplate", align 8
  %7 = getelementptr inbounds nuw i8, ptr %1, i64 160
  %8 = tail call noundef zeroext i1 @_ZNK4cvc58internal4Subs5emptyEv(ptr noundef nonnull align 8 dereferenceable(56) %7)
  br i1 %8, label %9, label %25

9:                                                ; preds = %3
  %10 = load ptr, ptr %2, align 8, !tbaa !64
  store ptr %10, ptr %0, align 8, !tbaa !21
  %11 = load i64, ptr %10, align 8
  %12 = lshr i64 %11, 40
  %13 = trunc nuw nsw i64 %12 to i32
  %14 = and i32 %13, 1048575
  %15 = icmp samesign ult i32 %14, 1048574
  br i1 %15, label %16, label %21, !prof !35

16:                                               ; preds = %9
  %17 = add i64 %11, 1099511627776
  %18 = and i64 %17, 1152920405095219200
  %19 = and i64 %11, -1152920405095219201
  %20 = or disjoint i64 %18, %19
  store i64 %20, ptr %10, align 8
  br label %_ZN4cvc58internal12NodeTemplateILb1EEC2ERKNS1_ILb0EEE.exit

21:                                               ; preds = %9
  %22 = icmp eq i32 %14, 1048574
  br i1 %22, label %23, label %_ZN4cvc58internal12NodeTemplateILb1EEC2ERKNS1_ILb0EEE.exit, !prof !34

23:                                               ; preds = %21
  %24 = or i64 %11, 1152920405095219200
  store i64 %24, ptr %10, align 8
  tail call void @_ZN4cvc58internal4expr9NodeValue20markRefCountMaxedOutEv(ptr noundef nonnull align 8 dereferenceable(24) %10)
  br label %_ZN4cvc58internal12NodeTemplateILb1EEC2ERKNS1_ILb0EEE.exit

25:                                               ; preds = %3
  call void @llvm.lifetime.start.p0(i64 8, ptr nonnull %5) #25
  call void @llvm.lifetime.start.p0(i64 8, ptr nonnull %6) #25
  %26 = load ptr, ptr %2, align 8, !tbaa !64
  store ptr %26, ptr %6, align 8, !tbaa !21
  %27 = load i64, ptr %26, align 8
  %28 = lshr i64 %27, 40
  %29 = trunc nuw nsw i64 %28 to i32
  %30 = and i32 %29, 1048575
  %31 = icmp samesign ult i32 %30, 1048574
  br i1 %31, label %32, label %37, !prof !35

32:                                               ; preds = %25
  %33 = add i64 %27, 1099511627776
  %34 = and i64 %33, 1152920405095219200
  %35 = and i64 %27, -1152920405095219201
  %36 = or disjoint i64 %34, %35
  store i64 %36, ptr %26, align 8
  br label %_ZN4cvc58internal12NodeTemplateILb1EEC2ERKNS1_ILb0EEE.exit4

37:                                               ; preds = %25
  %38 = icmp eq i32 %30, 1048574
  br i1 %38, label %39, label %_ZN4cvc58internal12NodeTemplateILb1EEC2ERKNS1_ILb0EEE.exit4, !prof !34

39:                                               ; preds = %37
  %40 = or i64 %27, 1152920405095219200
  store i64 %40, ptr %26, align 8
  tail call void @_ZN4cvc58internal4expr9NodeValue20markRefCountMaxedOutEv(ptr noundef nonnull align 8 dereferenceable(24) %26)
  br label %_ZN4cvc58internal12NodeTemplateILb1EEC2ERKNS1_ILb0EEE.exit4

_ZN4cvc58internal12NodeTemplateILb1EEC2ERKNS1_ILb0EEE.exit4: ; preds = %32, %37, %39
  invoke void @_ZNK4cvc58internal6theory5arith9ArithSubs10applyArithERKNS0_12NodeTemplateILb1EEEb(ptr dead_on_unwind nonnull writable sret(%"class.cvc5::internal::NodeTemplate") align 8 %5, ptr noundef nonnull align 8 dereferenceable(56) %7, ptr noundef nonnull align 8 dereferenceable(8) %6, i1 noundef zeroext true)
          to label %41 unwind label %70

41:                                               ; preds = %_ZN4cvc58internal12NodeTemplateILb1EEC2ERKNS1_ILb0EEE.exit4
  %42 = load ptr, ptr %5, align 8, !tbaa !21
  store ptr %42, ptr %4, align 8, !tbaa !64
  invoke void @_ZNK4cvc58internal6EnvObj7rewriteENS0_12NodeTemplateILb0EEE(ptr dead_on_unwind writable sret(%"class.cvc5::internal::NodeTemplate") align 8 %0, ptr noundef nonnull align 8 dereferenceable(16) %1, ptr noundef nonnull %4)
          to label %43 unwind label %72

43:                                               ; preds = %41
  %44 = load ptr, ptr %5, align 8, !tbaa !21
  %45 = load i64, ptr %44, align 8
  %46 = and i64 %45, 1152920405095219200
  %.not.i.i = icmp eq i64 %46, 1152920405095219200
  br i1 %.not.i.i, label %_ZN4cvc58internal12NodeTemplateILb1EED2Ev.exit, label %47, !prof !34

47:                                               ; preds = %43
  %48 = add i64 %45, 1152920405095219200
  %49 = and i64 %48, 1152920405095219200
  %50 = and i64 %45, -1152920405095219201
  %51 = or disjoint i64 %49, %50
  store i64 %51, ptr %44, align 8
  %52 = icmp eq i64 %49, 0
  br i1 %52, label %53, label %_ZN4cvc58internal12NodeTemplateILb1EED2Ev.exit, !prof !34

53:                                               ; preds = %47
  invoke void @_ZN4cvc58internal4expr9NodeValue15markForDeletionEv(ptr noundef nonnull align 8 dereferenceable(24) %44)
          to label %_ZN4cvc58internal12NodeTemplateILb1EED2Ev.exit unwind label %54

54:                                               ; preds = %53
  %55 = landingpad { ptr, i32 }
          catch ptr null
  %56 = extractvalue { ptr, i32 } %55, 0
  call void @__clang_call_terminate(ptr %56) #27
  unreachable

_ZN4cvc58internal12NodeTemplateILb1EED2Ev.exit:   ; preds = %43, %47, %53
  %57 = load ptr, ptr %6, align 8, !tbaa !21
  %58 = load i64, ptr %57, align 8
  %59 = and i64 %58, 1152920405095219200
  %.not.i.i5 = icmp eq i64 %59, 1152920405095219200
  br i1 %.not.i.i5, label %_ZN4cvc58internal12NodeTemplateILb1EED2Ev.exit6, label %60, !prof !34

60:                                               ; preds = %_ZN4cvc58internal12NodeTemplateILb1EED2Ev.exit
  %61 = add i64 %58, 1152920405095219200
  %62 = and i64 %61, 1152920405095219200
  %63 = and i64 %58, -1152920405095219201
  %64 = or disjoint i64 %62, %63
  store i64 %64, ptr %57, align 8
  %65 = icmp eq i64 %62, 0
  br i1 %65, label %66, label %_ZN4cvc58internal12NodeTemplateILb1EED2Ev.exit6, !prof !34

66:                                               ; preds = %60
  invoke void @_ZN4cvc58internal4expr9NodeValue15markForDeletionEv(ptr noundef nonnull align 8 dereferenceable(24) %57)
          to label %_ZN4cvc58internal12NodeTemplateILb1EED2Ev.exit6 unwind label %67

67:                                               ; preds = %66
  %68 = landingpad { ptr, i32 }
          catch ptr null
  %69 = extractvalue { ptr, i32 } %68, 0
  call void @__clang_call_terminate(ptr %69) #27
  unreachable

_ZN4cvc58internal12NodeTemplateILb1EED2Ev.exit6:  ; preds = %_ZN4cvc58internal12NodeTemplateILb1EED2Ev.exit, %60, %66
  call void @llvm.lifetime.end.p0(i64 8, ptr nonnull %6) #25
  call void @llvm.lifetime.end.p0(i64 8, ptr nonnull %5) #25
  br label %_ZN4cvc58internal12NodeTemplateILb1EEC2ERKNS1_ILb0EEE.exit

70:                                               ; preds = %_ZN4cvc58internal12NodeTemplateILb1EEC2ERKNS1_ILb0EEE.exit4
  %71 = landingpad { ptr, i32 }
          cleanup
  br label %74

72:                                               ; preds = %41
  %73 = landingpad { ptr, i32 }
          cleanup
  call void @_ZN4cvc58internal12NodeTemplateILb1EED2Ev(ptr noundef nonnull align 8 dereferenceable(8) %5) #25
  br label %74

74:                                               ; preds = %72, %70
  %.pn = phi { ptr, i32 } [ %73, %72 ], [ %71, %70 ]
  call void @_ZN4cvc58internal12NodeTemplateILb1EED2Ev(ptr noundef nonnull align 8 dereferenceable(8) %6) #25
  call void @llvm.lifetime.end.p0(i64 8, ptr nonnull %6) #25
  call void @llvm.lifetime.end.p0(i64 8, ptr nonnull %5) #25
  resume { ptr, i32 } %.pn

_ZN4cvc58internal12NodeTemplateILb1EEC2ERKNS1_ILb0EEE.exit: ; preds = %23, %21, %16, %_ZN4cvc58internal12NodeTemplateILb1EED2Ev.exit6
  ret void
}